target datalayout = "e-m:e-p270:32:32-p271:32:32-p272:64:64-i64:64-i128:128-f80:128-n8:16:32:64-S128"
target triple = "x86_64-pc-linux-gnu"

%struct.Gia_Man_t_ = type { ptr, ptr, i32, i32, i32, i32, ptr, ptr, i32, i32, i32, ptr, ptr, %struct.Vec_Int_t_, %struct.Vec_Int_t_, i32, i32, i32, %struct.Vec_Int_t_, ptr, ptr, ptr, i32, i32, i32, i32, ptr, ptr, ptr, ptr, ptr, i32, i32, ptr, i32, ptr, ptr, ptr, ptr, ptr, ptr, ptr, ptr, ptr, ptr, ptr, ptr, ptr, ptr, ptr, ptr, ptr, ptr, %struct.Vec_Int_t_, %struct.Vec_Int_t_, ptr, ptr, ptr, ptr, ptr, ptr, ptr, ptr, ptr, ptr, ptr, ptr, ptr, ptr, ptr, ptr, ptr, ptr, ptr, ptr, ptr, i32, float, float, ptr, ptr, i32, ptr, ptr, ptr, ptr, ptr, ptr, ptr, ptr, ptr, ptr, ptr, ptr, ptr, ptr, ptr, i64, i64, ptr, ptr, i32, i32, i32, i32, i32, i32, i32, i32, i32, i32, i32, i32, ptr, ptr, ptr, ptr, ptr, ptr, ptr, ptr, i32, i32, i32, ptr, i32, i32, ptr, ptr, ptr, ptr, ptr, ptr, i32, i32, ptr, %struct.Vec_Int_t_, %struct.Vec_Int_t_, %struct.Vec_Int_t_, ptr, ptr, ptr, i32, i32, i32, i32, ptr, ptr, ptr, ptr, ptr }
%struct.Vec_Int_t_ = type { i32, i32, ptr }
%struct.Gia_Obj_t_ = type <{ i64, i32 }>

; Function Attrs: inlinehint nounwind uwtable
define internal i32 @Gia_ObjDiff1(ptr noundef %0) #4 {
  %2 = alloca ptr, align 8
  store ptr %0, ptr %2, align 8, !tbaa !32
  %3 = load ptr, ptr %2, align 8, !tbaa !32
  %4 = load i64, ptr %3, align 4
  %5 = lshr i64 %4, 32
  %6 = and i64 %5, 536870911
  %7 = trunc i64 %6 to i32
  ret i32 %7
}

; Function Attrs: inlinehint nounwind uwtable
define internal i32 @Gia_ObjIsAnd(ptr noundef %0) #4 {
  %2 = alloca ptr, align 8
  store ptr %0, ptr %2, align 8, !tbaa !32
  %3 = load ptr, ptr %2, align 8, !tbaa !32
  %4 = load i64, ptr %3, align 4
  %5 = lshr i64 %4, 31
  %6 = and i64 %5, 1
  %7 = trunc i64 %6 to i32
  %8 = icmp ne i32 %7, 0
  br i1 %8, label %15, label %9

9:                                                ; preds = %1
  %10 = load ptr, ptr %2, align 8, !tbaa !32
  %11 = load i64, ptr %10, align 4
  %12 = and i64 %11, 536870911
  %13 = trunc i64 %12 to i32
  %14 = icmp ne i32 %13, 536870911
  br label %15

15:                                               ; preds = %9, %1
  %16 = phi i1 [ false, %1 ], [ %14, %9 ]
  %17 = zext i1 %16 to i32
  ret i32 %17
}

; Function Attrs: inlinehint nounwind uwtable
define internal i32 @Gia_ObjDiff0(ptr noundef %0) #4 {
  %2 = alloca ptr, align 8
  store ptr %0, ptr %2, align 8, !tbaa !32
  %3 = load ptr, ptr %2, align 8, !tbaa !32
  %4 = load i64, ptr %3, align 4
  %5 = and i64 %4, 536870911
  %6 = trunc i64 %5 to i32
  ret i32 %6
}

; Function Attrs: inlinehint nounwind uwtable
define internal i32 @Gia_ObjIsCo(ptr noundef %0) #4 {
  %2 = alloca ptr, align 8
  store ptr %0, ptr %2, align 8, !tbaa !32
  %3 = load ptr, ptr %2, align 8, !tbaa !32
  %4 = load i64, ptr %3, align 4
  %5 = lshr i64 %4, 31
  %6 = and i64 %5, 1
  %7 = trunc i64 %6 to i32
  %8 = icmp ne i32 %7, 0
  br i1 %8, label %9, label %15

9:                                                ; preds = %1
  %10 = load ptr, ptr %2, align 8, !tbaa !32
  %11 = load i64, ptr %10, align 4
  %12 = and i64 %11, 536870911
  %13 = trunc i64 %12 to i32
  %14 = icmp ne i32 %13, 536870911
  br label %15

15:                                               ; preds = %9, %1
  %16 = phi i1 [ false, %1 ], [ %14, %9 ]
  %17 = zext i1 %16 to i32
  ret i32 %17
}

; Function Attrs: inlinehint nounwind uwtable
define internal ptr @Gia_ManObj(ptr noundef %0, i32 noundef %1) #4 {
  %3 = alloca ptr, align 8
  %4 = alloca i32, align 4
  store ptr %0, ptr %3, align 8, !tbaa !3
  store i32 %1, ptr %4, align 4, !tbaa !30
  %5 = load ptr, ptr %3, align 8, !tbaa !3
  %6 = getelementptr inbounds nuw %struct.Gia_Man_t_, ptr %5, i32 0, i32 6
  %7 = load ptr, ptr %6, align 8, !tbaa !37
  %8 = load i32, ptr %4, align 4, !tbaa !30
  %9 = sext i32 %8 to i64
  %10 = getelementptr inbounds %struct.Gia_Obj_t_, ptr %7, i64 %9
  ret ptr %10
}

; Function Attrs: nounwind uwtable
define void @Gia_ManFrontTransform(ptr noundef %0) #0 {
  %2 = alloca ptr, align 8
  %3 = alloca ptr, align 8
  %4 = alloca i32, align 4
  %5 = alloca ptr, align 8
  store ptr %0, ptr %2, align 8, !tbaa !3
  call void @llvm.lifetime.start.p0(i64 8, ptr %3) #11
  call void @llvm.lifetime.start.p0(i64 4, ptr %4) #11
  call void @llvm.lifetime.start.p0(i64 8, ptr %5) #11
  %6 = load ptr, ptr %2, align 8, !tbaa !3
  %7 = getelementptr inbounds nuw %struct.Gia_Man_t_, ptr %6, i32 0, i32 25
  %8 = load i32, ptr %7, align 4, !tbaa !8
  %9 = sext i32 %8 to i64
  %10 = mul i64 4, %9
  %11 = call noalias ptr @malloc(i64 noundef %10) #12
  %12 = load ptr, ptr %2, align 8, !tbaa !3
  %13 = getelementptr inbounds nuw %struct.Gia_Man_t_, ptr %12, i32 0, i32 25
  %14 = load i32, ptr %13, align 4, !tbaa !8
  %15 = sext i32 %14 to i64
  %16 = mul i64 4, %15
  call void @llvm.memset.p0.i64(ptr align 1 %11, i8 -1, i64 %16, i1 false)
  store ptr %11, ptr %5, align 8, !tbaa !29
  store i32 0, ptr %4, align 4, !tbaa !30
  br label %17

17:                                               ; preds = %102, %1
  %18 = load i32, ptr %4, align 4, !tbaa !30
  %19 = load ptr, ptr %2, align 8, !tbaa !3
  %20 = getelementptr inbounds nuw %struct.Gia_Man_t_, ptr %19, i32 0, i32 4
  %21 = load i32, ptr %20, align 8, !tbaa !31
  %22 = icmp slt i32 %18, %21
  br i1 %22, label %23, label %28

23:                                               ; preds = %17
  %24 = load ptr, ptr %2, align 8, !tbaa !3
  %25 = load i32, ptr %4, align 4, !tbaa !30
  %26 = call ptr @Gia_ManObj(ptr noundef %24, i32 noundef %25)
  store ptr %26, ptr %3, align 8, !tbaa !32
  %27 = icmp ne ptr %26, null
  br label %28

28:                                               ; preds = %23, %17
  %29 = phi i1 [ false, %17 ], [ %27, %23 ]
  br i1 %29, label %30, label %105

30:                                               ; preds = %28
  %31 = load ptr, ptr %3, align 8, !tbaa !32
  %32 = call i32 @Gia_ObjIsCo(ptr noundef %31)
  %33 = icmp ne i32 %32, 0
  br i1 %33, label %34, label %49

34:                                               ; preds = %30
  %35 = load i32, ptr %4, align 4, !tbaa !30
  %36 = load ptr, ptr %5, align 8, !tbaa !29
  %37 = load ptr, ptr %3, align 8, !tbaa !32
  %38 = call i32 @Gia_ObjDiff0(ptr noundef %37)
  %39 = sext i32 %38 to i64
  %40 = getelementptr inbounds i32, ptr %36, i64 %39
  %41 = load i32, ptr %40, align 4, !tbaa !30
  %42 = sub nsw i32 %35, %41
  %43 = load ptr, ptr %3, align 8, !tbaa !32
  %44 = zext i32 %42 to i64
  %45 = load i64, ptr %43, align 4
  %46 = and i64 %44, 536870911
  %47 = and i64 %45, -536870912
  %48 = or i64 %47, %46
  store i64 %48, ptr %43, align 4
  br label %99

49:                                               ; preds = %30
  %50 = load ptr, ptr %3, align 8, !tbaa !32
  %51 = call i32 @Gia_ObjIsAnd(ptr noundef %50)
  %52 = icmp ne i32 %51, 0
  br i1 %52, label %53, label %90

53:                                               ; preds = %49
  %54 = load i32, ptr %4, align 4, !tbaa !30
  %55 = load ptr, ptr %5, align 8, !tbaa !29
  %56 = load ptr, ptr %3, align 8, !tbaa !32
  %57 = call i32 @Gia_ObjDiff0(ptr noundef %56)
  %58 = sext i32 %57 to i64
  %59 = getelementptr inbounds i32, ptr %55, i64 %58
  %60 = load i32, ptr %59, align 4, !tbaa !30
  %61 = sub nsw i32 %54, %60
  %62 = load ptr, ptr %3, align 8, !tbaa !32
  %63 = zext i32 %61 to i64
  %64 = load i64, ptr %62, align 4
  %65 = and i64 %63, 536870911
  %66 = and i64 %64, -536870912
  %67 = or i64 %66, %65
  store i64 %67, ptr %62, align 4
  %68 = load i32, ptr %4, align 4, !tbaa !30
  %69 = load ptr, ptr %5, align 8, !tbaa !29
  %70 = load ptr, ptr %3, align 8, !tbaa !32
  %71 = call i32 @Gia_ObjDiff1(ptr noundef %70)
  %72 = sext i32 %71 to i64
  %73 = getelementptr inbounds i32, ptr %69, i64 %72
  %74 = load i32, ptr %73, align 4, !tbaa !30
  %75 = sub nsw i32 %68, %74
  %76 = load ptr, ptr %3, align 8, !tbaa !32
  %77 = zext i32 %75 to i64
  %78 = load i64, ptr %76, align 4
  %79 = and i64 %77, 536870911
  %80 = shl i64 %79, 32
  %81 = and i64 %78, -2305843004918726657
  %82 = or i64 %81, %80
  store i64 %82, ptr %76, align 4
  %83 = load i32, ptr %4, align 4, !tbaa !30
  %84 = load ptr, ptr %5, align 8, !tbaa !29
  %85 = load ptr, ptr %3, align 8, !tbaa !32
  %86 = getelementptr inbounds nuw %struct.Gia_Obj_t_, ptr %85, i32 0, i32 1
  %87 = load i32, ptr %86, align 4, !tbaa !33
  %88 = zext i32 %87 to i64
  %89 = getelementptr inbounds nuw i32, ptr %84, i64 %88
  store i32 %83, ptr %89, align 4, !tbaa !30
  br label %98

90:                                               ; preds = %49
  %91 = load i32, ptr %4, align 4, !tbaa !30
  %92 = load ptr, ptr %5, align 8, !tbaa !29
  %93 = load ptr, ptr %3, align 8, !tbaa !32
  %94 = getelementptr inbounds nuw %struct.Gia_Obj_t_, ptr %93, i32 0, i32 1
  %95 = load i32, ptr %94, align 4, !tbaa !33
  %96 = zext i32 %95 to i64
  %97 = getelementptr inbounds nuw i32, ptr %92, i64 %96
  store i32 %91, ptr %97, align 4, !tbaa !30
  br label %98

98:                                               ; preds = %90, %53
  br label %99

99:                                               ; preds = %98, %34
  %100 = load ptr, ptr %3, align 8, !tbaa !32
  %101 = getelementptr inbounds nuw %struct.Gia_Obj_t_, ptr %100, i32 0, i32 1
  store i32 0, ptr %101, align 4, !tbaa !33
  br label %102

102:                                              ; preds = %99
  %103 = load i32, ptr %4, align 4, !tbaa !30
  %104 = add nsw i32 %103, 1
  store i32 %104, ptr %4, align 4, !tbaa !30
  br label %17, !llvm.loop !35

105:                                              ; preds = %28
  %106 = load ptr, ptr %5, align 8, !tbaa !29
  %107 = icmp ne ptr %106, null
  br i1 %107, label %108, label %110

108:                                              ; preds = %105
  %109 = load ptr, ptr %5, align 8, !tbaa !29
  call void @free(ptr noundef %109) #11
  store ptr null, ptr %5, align 8, !tbaa !29
  br label %111

110:                                              ; preds = %105
  br label %111

111:                                              ; preds = %110, %108
  call void @llvm.lifetime.end.p0(i64 8, ptr %5) #11
  call void @llvm.lifetime.end.p0(i64 4, ptr %4) #11
  call void @llvm.lifetime.end.p0(i64 8, ptr %3) #11
  ret void
}