; Function Attrs: nounwind uwtable
define void @Gia_ManFrontTransform(ptr noundef readonly captures(none) %0) local_unnamed_addr #0 {
  %2 = getelementptr inbounds nuw i8, ptr %0, i64 180
  %3 = load i32, ptr %2, align 4, !tbaa !3
  %4 = sext i32 %3 to i64
  %5 = shl nsw i64 %4, 2
  %6 = tail call noalias ptr @malloc(i64 noundef %5) #15
  tail call void @llvm.memset.p0.i64(ptr align 1 %6, i8 -1, i64 %5, i1 false)
  %7 = getelementptr i8, ptr %0, i64 32
  %8 = getelementptr inbounds nuw i8, ptr %0, i64 24
  %9 = load i32, ptr %8, align 8, !tbaa !28
  %10 = icmp sgt i32 %9, 0
  br i1 %10, label %.lr.ph, label %.critedge

.lr.ph:                                           ; preds = %1, %54
  %indvars.iv = phi i64 [ %indvars.iv.next, %54 ], [ 0, %1 ]
  %.val = load ptr, ptr %7, align 8, !tbaa !29
  %11 = getelementptr inbounds nuw %struct.Gia_Obj_t_, ptr %.val, i64 %indvars.iv
  %.not = icmp eq ptr %.val, null
  br i1 %.not, label %.critedge, label %12

12:                                               ; preds = %.lr.ph
  %.val34 = load i64, ptr %11, align 4
  %13 = and i64 %.val34, 2147483648
  %.not.i = icmp ne i64 %13, 0
  %14 = and i64 %.val34, 536870911
  %15 = icmp ne i64 %14, 536870911
  %narrow.i = and i1 %.not.i, %15
  br i1 %narrow.i, label %16, label %25

16:                                               ; preds = %12
  %17 = getelementptr inbounds nuw i32, ptr %6, i64 %14
  %18 = load i32, ptr %17, align 4, !tbaa !30
  %19 = trunc nuw nsw i64 %indvars.iv to i32
  %20 = sub nsw i32 %19, %18
  %21 = and i32 %20, 536870911
  %22 = zext nneg i32 %21 to i64
  %23 = and i64 %.val34, -536870912
  %24 = or disjoint i64 %23, %22
  store i64 %24, ptr %11, align 4
  br label %54

25:                                               ; preds = %12
  %.not.i39 = icmp eq i64 %13, 0
  %narrow.i40 = and i1 %.not.i39, %15
  br i1 %narrow.i40, label %26, label %48

26:                                               ; preds = %25
  %27 = getelementptr inbounds nuw i32, ptr %6, i64 %14
  %28 = load i32, ptr %27, align 4, !tbaa !30
  %29 = trunc nuw nsw i64 %indvars.iv to i32
  %30 = sub nsw i32 %29, %28
  %31 = and i32 %30, 536870911
  %32 = zext nneg i32 %31 to i64
  %33 = and i64 %.val34, -2305843007603081216
  %34 = or disjoint i64 %33, %32
  %35 = lshr i64 %.val34, 32
  %36 = and i64 %35, 536870911
  %37 = getelementptr inbounds nuw i32, ptr %6, i64 %36
  %38 = load i32, ptr %37, align 4, !tbaa !30
  %39 = sub nsw i32 %29, %38
  %40 = and i32 %39, 536870911
  %41 = zext nneg i32 %40 to i64
  %42 = shl nuw nsw i64 %41, 32
  %43 = or disjoint i64 %42, %34
  store i64 %43, ptr %11, align 4
  %44 = getelementptr inbounds nuw i8, ptr %11, i64 8
  %45 = load i32, ptr %44, align 4, !tbaa !31
  %46 = zext i32 %45 to i64
  %47 = getelementptr inbounds nuw i32, ptr %6, i64 %46
  store i32 %29, ptr %47, align 4, !tbaa !30
  br label %54

48:                                               ; preds = %25
  %49 = getelementptr inbounds nuw i8, ptr %11, i64 8
  %50 = load i32, ptr %49, align 4, !tbaa !31
  %51 = zext i32 %50 to i64
  %52 = getelementptr inbounds nuw i32, ptr %6, i64 %51
  %53 = trunc nuw nsw i64 %indvars.iv to i32
  store i32 %53, ptr %52, align 4, !tbaa !30
  br label %54

54:                                               ; preds = %26, %48, %16
  %55 = getelementptr inbounds nuw i8, ptr %11, i64 8
  store i32 0, ptr %55, align 4, !tbaa !31
  %indvars.iv.next = add nuw nsw i64 %indvars.iv, 1
  %56 = load i32, ptr %8, align 8, !tbaa !28
  %57 = sext i32 %56 to i64
  %58 = icmp slt i64 %indvars.iv.next, %57
  br i1 %58, label %.lr.ph, label %.critedge.thread, !llvm.loop !33

.critedge:                                        ; preds = %.lr.ph, %1
  %.not31 = icmp eq ptr %6, null
  br i1 %.not31, label %59, label %.critedge.thread

.critedge.thread:                                 ; preds = %54, %.critedge
  tail call void @free(ptr noundef nonnull %6) #16
  br label %59

59:                                               ; preds = %.critedge, %.critedge.thread
  ret void
}